(dp0
S'TI_10211_01_E'
p1
(dp2
S'val_upper'
p3
F61.19
sS'val_lower'
p4
F38.08
ssS'FIQC_03305_E_FB'
p5
(dp6
g3
F6.69
sg4
F4.9
ssS'TI_05209'
p7
(dp8
g3
F104.94
sg4
F90.19
ssS'TI05210'
p9
(dp10
g3
F105.38
sg4
F89.32
ssS'TI05214'
p11
(dp12
g3
F322.89
sg4
F304.73
ssS'TI05215'
p13
(dp14
g3
F323.62
sg4
F307.72
ssS'PAF_C_FLOW'
p15
(dp16
g3
F32.37
sg4
F22.27
ssS'PULV_C_I'
p17
(dp18
g3
F15.15
sg4
F13.87
ssS'PULV_B_I'
p19
(dp20
g3
F17.25
sg4
F15.9
ssS'PULV_E_I'
p21
(dp22
g3
F15.66
sg4
F14.55
ssS'PI_05102_19'
p23
(dp24
g3
F277.19
sg4
F234.15
ssS'PI_05102_18'
p25
(dp26
g3
F244.54
sg4
F198.83
ssS'PI_05102_17'
p27
(dp28
g3
F277.26
sg4
F218.03
ssS'PI_05102_16'
p29
(dp30
g3
F350.3
sg4
F195.94
ssS'PI_05102_15'
p31
(dp32
g3
F170.69
sg4
F72.64
ssS'PI_05102_13'
p33
(dp34
g3
F314.71
sg4
F257.37
ssS'PI_05102_12'
p35
(dp36
g3
F311.25
sg4
F259.49
ssS'PI_05102_11'
p37
(dp38
g3
F278.88
sg4
F233.92
ssS'PI_05102_10'
p39
(dp40
g3
F287.4
sg4
F246.1
ssS'PAF_E_FLOW'
p41
(dp42
g3
F24.41
sg4
F20.4
ssS'TI_10212_03_E'
p43
(dp44
g3
F64.56
sg4
F46.99
ssS'PAF_A_FLOW'
p45
(dp46
g3
F25.24
sg4
F14.85
ssS'FIQC_03305_B_FB'
p47
(dp48
g3
F6.48
sg4
F5.28
ssS'FIQC_03305_A_FB'
p49
(dp50
g3
F5.46
sg4
F4.8
ssS'TI_10212_02_E'
p51
(dp52
g3
F68.08
sg4
F45.25
ssS'TI_05218'
p53
(dp54
g3
F323.99
sg4
F306.05
ssS'TI_10212_01_E'
p55
(dp56
g3
F62.5
sg4
F41.4
ssS'TI_05212'
p57
(dp58
g3
F114.37
sg4
F89.19
ssS'TI_05213'
p59
(dp60
g3
F119.13
sg4
F99.56
ssS'TI_05211'
p61
(dp62
g3
F111.35
sg4
F91.3
ssS'TI_05216'
p63
(dp64
g3
F326.1
sg4
F311.11
ssS'TI_05217'
p65
(dp66
g3
F319.82
sg4
F303.67
ssS'PI_05102_7'
p67
(dp68
g3
F570.84
sg4
F478.43
ssS'PI_05102_6'
p69
(dp70
g3
F572.5
sg4
F504.11
ssS'PI_05102_5'
p71
(dp72
g3
F547.21
sg4
F504.77
ssS'PAF_D_FLOW'
p73
(dp74
g3
F30.2
sg4
F21.46
ssS'PAF_B_FLOW'
p75
(dp76
g3
F24.18
sg4
F16.67
ssS'PI_05102_9'
p77
(dp78
g3
F631.85
sg4
F517.08
ssS'PI_05102_8'
p79
(dp80
g3
F578.2
sg4
F489.76
ssS'FIQC_03305_D_FB'
p81
(dp82
g3
F5.94
sg4
F4.67
ssS'FIQC_03305_C_FB'
p83
(dp84
g3
F6.16
sg4
F4.65
ssS'TI_10211_02_E'
p85
(dp86
g3
F63.66
sg4
F43.46
ssS'PULV_D_I'
p87
(dp88
g3
F17.11
sg4
F14.97
ssS'PULV_A_I'
p89
(dp90
g3
F17.73
sg4
F16.63
ss.